target datalayout = "e-m:e-p270:32:32-p271:32:32-p272:64:64-i64:64-i128:128-f80:128-n8:16:32:64-S128"
target triple = "x86_64-pc-linux-gnu"

%"class.icu_77::UObject" = type { ptr }
%"class.icu_77::UnicodeString" = type { %"class.icu_77::Replaceable", %"union.icu_77::UnicodeString::StackBufferOrFields" }
%"class.icu_77::Replaceable" = type { %"class.icu_77::UObject" }
%"union.icu_77::UnicodeString::StackBufferOrFields" = type { %struct.anon.0, [32 x i8] }
%struct.anon.0 = type { i16, i32, i32, ptr }
%struct.UParseError = type { i32, i32, [16 x i16], [16 x i16] }

; Function Attrs: inlinehint mustprogress nounwind uwtable
define internal noundef signext i8 @_ZL9U_FAILURE10UErrorCode(i32 noundef %0) #4 {
  %2 = alloca i32, align 4
  store i32 %0, ptr %2, align 4, !tbaa !46
  %3 = load i32, ptr %2, align 4, !tbaa !46
  %4 = icmp sgt i32 %3, 0
  %5 = zext i1 %4 to i8
  ret i8 %5
}

; Function Attrs: mustprogress uwtable
define void @umsg_applyPattern_77(ptr noundef %0, ptr noundef %1, i32 noundef %2, ptr noundef %3, ptr noundef %4) #0 personality ptr @__gxx_personality_v0 {
  %6 = alloca ptr, align 8
  %7 = alloca ptr, align 8
  %8 = alloca i32, align 4
  %9 = alloca ptr, align 8
  %10 = alloca ptr, align 8
  %11 = alloca %struct.UParseError, align 4
  %12 = alloca i32, align 4
  %13 = alloca %"class.icu_77::UnicodeString", align 8
  %14 = alloca ptr, align 8
  %15 = alloca i32, align 4
  store ptr %0, ptr %6, align 8, !tbaa !43
  store ptr %1, ptr %7, align 8, !tbaa !38
  store i32 %2, ptr %8, align 4, !tbaa !35
  store ptr %3, ptr %9, align 8, !tbaa !44
  store ptr %4, ptr %10, align 8, !tbaa !40
  call void @llvm.lifetime.start.p0(i64 72, ptr %11) #13
  %16 = load ptr, ptr %10, align 8, !tbaa !40
  %17 = icmp eq ptr %16, null
  br i1 %17, label %23, label %18

18:                                               ; preds = %5
  %19 = load ptr, ptr %10, align 8, !tbaa !40
  %20 = load i32, ptr %19, align 4, !tbaa !46
  %21 = call noundef signext i8 @_ZL9U_FAILURE10UErrorCode(i32 noundef %20)
  %22 = icmp ne i8 %21, 0
  br i1 %22, label %23, label %24

23:                                               ; preds = %18, %5
  store i32 1, ptr %12, align 4
  br label %52

24:                                               ; preds = %18
  %25 = load ptr, ptr %6, align 8, !tbaa !43
  %26 = icmp eq ptr %25, null
  br i1 %26, label %36, label %27

27:                                               ; preds = %24
  %28 = load ptr, ptr %7, align 8, !tbaa !38
  %29 = icmp eq ptr %28, null
  br i1 %29, label %30, label %33

30:                                               ; preds = %27
  %31 = load i32, ptr %8, align 4, !tbaa !35
  %32 = icmp ne i32 %31, 0
  br i1 %32, label %36, label %33

33:                                               ; preds = %30, %27
  %34 = load i32, ptr %8, align 4, !tbaa !35
  %35 = icmp slt i32 %34, -1
  br i1 %35, label %36, label %38

36:                                               ; preds = %33, %30, %24
  %37 = load ptr, ptr %10, align 8, !tbaa !40
  store i32 1, ptr %37, align 4, !tbaa !46
  store i32 1, ptr %12, align 4
  br label %52

38:                                               ; preds = %33
  %39 = load ptr, ptr %9, align 8, !tbaa !44
  %40 = icmp eq ptr %39, null
  br i1 %40, label %41, label %42

41:                                               ; preds = %38
  store ptr %11, ptr %9, align 8, !tbaa !44
  br label %42

42:                                               ; preds = %41, %38
  %43 = load ptr, ptr %6, align 8, !tbaa !43
  call void @llvm.lifetime.start.p0(i64 64, ptr %13) #13
  %44 = load ptr, ptr %7, align 8, !tbaa !38
  %45 = load i32, ptr %8, align 4, !tbaa !35
  call void @_ZN6icu_7713UnicodeStringC1EPKDsi(ptr noundef nonnull align 8 dereferenceable(64) %13, ptr noundef %44, i32 noundef %45)
  %46 = load ptr, ptr %9, align 8, !tbaa !44
  %47 = load ptr, ptr %10, align 8, !tbaa !40
  %48 = load ptr, ptr %43, align 8, !tbaa !58
  %49 = getelementptr inbounds ptr, ptr %48, i64 11
  %50 = load ptr, ptr %49, align 8
  invoke void %50(ptr noundef nonnull align 8 dereferenceable(512) %43, ptr noundef nonnull align 8 dereferenceable(64) %13, ptr noundef nonnull align 4 dereferenceable(72) %46, ptr noundef nonnull align 4 dereferenceable(4) %47)
          to label %51 unwind label %55

51:                                               ; preds = %42
  call void @_ZN6icu_7713UnicodeStringD1Ev(ptr noundef nonnull align 8 dereferenceable(64) %13) #13
  call void @llvm.lifetime.end.p0(i64 64, ptr %13) #13
  store i32 0, ptr %12, align 4
  br label %52

52:                                               ; preds = %51, %36, %23
  call void @llvm.lifetime.end.p0(i64 72, ptr %11) #13
  %53 = load i32, ptr %12, align 4
  switch i32 %53, label %64 [
    i32 0, label %54
    i32 1, label %54
  ]

54:                                               ; preds = %52, %52
  ret void

55:                                               ; preds = %42
  %56 = landingpad { ptr, i32 }
          cleanup
  %57 = extractvalue { ptr, i32 } %56, 0
  store ptr %57, ptr %14, align 8
  %58 = extractvalue { ptr, i32 } %56, 1
  store i32 %58, ptr %15, align 4
  call void @_ZN6icu_7713UnicodeStringD1Ev(ptr noundef nonnull align 8 dereferenceable(64) %13) #13
  call void @llvm.lifetime.end.p0(i64 64, ptr %13) #13
  call void @llvm.lifetime.end.p0(i64 72, ptr %11) #13
  br label %59

59:                                               ; preds = %55
  %60 = load ptr, ptr %14, align 8
  %61 = load i32, ptr %15, align 4
  %62 = insertvalue { ptr, i32 } poison, ptr %60, 0
  %63 = insertvalue { ptr, i32 } %62, i32 %61, 1
  resume { ptr, i32 } %63

64:                                               ; preds = %52
  unreachable
}