; Function Attrs: mustprogress uwtable
define void @umsg_applyPattern_77(ptr noundef %0, ptr noundef %1, i32 noundef %2, ptr noundef %3, ptr noundef %4) local_unnamed_addr #1 personality ptr @__gxx_personality_v0 {
  %6 = alloca %struct.UParseError, align 4
  %7 = alloca %"class.icu_77::UnicodeString", align 8
  call void @llvm.lifetime.start.p0(i64 72, ptr nonnull %6) #10
  %8 = icmp eq ptr %4, null
  br i1 %8, label %25, label %9

9:                                                ; preds = %5
  %10 = load i32, ptr %4, align 4, !tbaa !36
  %11 = icmp slt i32 %10, 1
  br i1 %11, label %12, label %25

12:                                               ; preds = %9
  %13 = icmp eq ptr %0, null
  br i1 %13, label %18, label %14

14:                                               ; preds = %12
  %15 = icmp eq ptr %1, null
  %16 = icmp ne i32 %2, 0
  %or.cond = and i1 %15, %16
  %17 = icmp slt i32 %2, -1
  %or.cond3 = or i1 %17, %or.cond
  br i1 %or.cond3, label %18, label %19

18:                                               ; preds = %14, %12
  store i32 1, ptr %4, align 4, !tbaa !36
  br label %25

19:                                               ; preds = %14
  %20 = icmp eq ptr %3, null
  %spec.store.select = select i1 %20, ptr %6, ptr %3
  call void @llvm.lifetime.start.p0(i64 64, ptr nonnull %7) #10
  call void @_ZN6icu_7713UnicodeStringC1EPKDsi(ptr noundef nonnull align 8 dereferenceable(64) %7, ptr noundef %1, i32 noundef %2)
  %21 = load ptr, ptr %0, align 8, !tbaa !34
  %22 = getelementptr inbounds nuw i8, ptr %21, i64 88
  %23 = load ptr, ptr %22, align 8
  invoke void %23(ptr noundef nonnull align 8 dereferenceable(512) %0, ptr noundef nonnull align 8 dereferenceable(64) %7, ptr noundef nonnull align 4 dereferenceable(72) %spec.store.select, ptr noundef nonnull align 4 dereferenceable(4) %4)
          to label %24 unwind label %26

24:                                               ; preds = %19
  call void @_ZN6icu_7713UnicodeStringD1Ev(ptr noundef nonnull align 8 dereferenceable(64) %7) #10
  call void @llvm.lifetime.end.p0(i64 64, ptr nonnull %7) #10
  br label %25

25:                                               ; preds = %5, %9, %24, %18
  call void @llvm.lifetime.end.p0(i64 72, ptr nonnull %6) #10
  ret void

26:                                               ; preds = %19
  %27 = landingpad { ptr, i32 }
          cleanup
  call void @_ZN6icu_7713UnicodeStringD1Ev(ptr noundef nonnull align 8 dereferenceable(64) %7) #10
  call void @llvm.lifetime.end.p0(i64 64, ptr nonnull %7) #10
  call void @llvm.lifetime.end.p0(i64 72, ptr nonnull %6) #10
  resume { ptr, i32 } %27
}